---
triple:          'arm64-apple-darwin'
binary-path:     '/Users/carlosdelgado/Desktop/10Semestre/SeminarioTitulacion/Implementacion/FlaskServer/MySQLScripts/dummyRowInsertions/generateDummyEdges'
relocations:
  - { offsetInCU: 0x165, offset: 0x165, size: 0x8, addend: 0x0, symName: __ZSt23__is_constant_evaluatedv, symObjAddr: 0x0, symBinAddr: 0x100001E78, symSize: 0x8 }
  - { offsetInCU: 0x7A7A, offset: 0x7A7A, size: 0x8, addend: 0x0, symName: __ZStL8__ioinit, symObjAddr: 0x366E0, symBinAddr: 0x1000080B1, symSize: 0x0 }
  - { offsetInCU: 0x9ED2, offset: 0x9ED2, size: 0x8, addend: 0x0, symName: __ZNSt8__detail30__integer_to_chars_is_unsignedIjEE, symObjAddr: 0x133A, symBinAddr: 0x100003532, symSize: 0x0 }
  - { offsetInCU: 0x9EEC, offset: 0x9EEC, size: 0x8, addend: 0x0, symName: __ZNSt8__detail30__integer_to_chars_is_unsignedImEE, symObjAddr: 0x133B, symBinAddr: 0x100003533, symSize: 0x0 }
  - { offsetInCU: 0x9F06, offset: 0x9F06, size: 0x8, addend: 0x0, symName: __ZNSt8__detail30__integer_to_chars_is_unsignedIyEE, symObjAddr: 0x133C, symBinAddr: 0x100003534, symSize: 0x0 }
  - { offsetInCU: 0xA046, offset: 0xA046, size: 0x8, addend: 0x0, symName: __GLOBAL__sub_I_generateDummyEdges.cpp, symObjAddr: 0x10F8, symBinAddr: 0x100002F70, symSize: 0x14 }
  - { offsetInCU: 0xA064, offset: 0xA064, size: 0x8, addend: 0x0, symName: __Z41__static_initialization_and_destruction_0v, symObjAddr: 0x10BC, symBinAddr: 0x100002F34, symSize: 0x3C }
  - { offsetInCU: 0xA06C, offset: 0xA06C, size: 0x8, addend: 0x0, symName: __GLOBAL__sub_I_generateDummyEdges.cpp, symObjAddr: 0x10F8, symBinAddr: 0x100002F70, symSize: 0x14 }
  - { offsetInCU: 0xA056, offset: 0xA056, size: 0x8, addend: 0x0, symName: __ZNKSt6chrono8durationIxSt5ratioILl3600ELl1EEE5countEv, symObjAddr: 0x10A4, symBinAddr: 0x100002F1C, symSize: 0x18 }
  - { offsetInCU: 0xA05E, offset: 0xA05E, size: 0x8, addend: 0x0, symName: __Z41__static_initialization_and_destruction_0v, symObjAddr: 0x10BC, symBinAddr: 0x100002F34, symSize: 0x3C }
  - { offsetInCU: 0xA085, offset: 0xA085, size: 0x8, addend: 0x0, symName: __ZNKSt6chrono8durationIxSt5ratioILl60ELl1EEE5countEv, symObjAddr: 0x108C, symBinAddr: 0x100002F04, symSize: 0x18 }
  - { offsetInCU: 0xA08D, offset: 0xA08D, size: 0x8, addend: 0x0, symName: __ZNKSt6chrono8durationIxSt5ratioILl3600ELl1EEE5countEv, symObjAddr: 0x10A4, symBinAddr: 0x100002F1C, symSize: 0x18 }
  - { offsetInCU: 0xA0B4, offset: 0xA0B4, size: 0x8, addend: 0x0, symName: __ZNSt6chrono20__duration_cast_implINS_8durationIxSt5ratioILl1ELl1000000000EEEES2_ILl3600000000000ELl1EExLb0ELb1EE6__castIxS2_ILl3600ELl1EEEES4_RKNS1_IT_T0_EE, symObjAddr: 0x1048, symBinAddr: 0x100002EC0, symSize: 0x44 }
  - { offsetInCU: 0xA0BC, offset: 0xA0BC, size: 0x8, addend: 0x0, symName: __ZNKSt6chrono8durationIxSt5ratioILl60ELl1EEE5countEv, symObjAddr: 0x108C, symBinAddr: 0x100002F04, symSize: 0x18 }
  - { offsetInCU: 0xA189, offset: 0xA189, size: 0x8, addend: 0x0, symName: __ZNSt6chrono20__duration_cast_implINS_8durationIxSt5ratioILl1ELl1000000000EEEES2_ILl60000000000ELl1EExLb0ELb1EE6__castIxS2_ILl60ELl1EEEES4_RKNS1_IT_T0_EE, symObjAddr: 0x1004, symBinAddr: 0x100002E7C, symSize: 0x44 }
  - { offsetInCU: 0xA191, offset: 0xA191, size: 0x8, addend: 0x0, symName: __ZNSt6chrono20__duration_cast_implINS_8durationIxSt5ratioILl1ELl1000000000EEEES2_ILl3600000000000ELl1EExLb0ELb1EE6__castIxS2_ILl3600ELl1EEEES4_RKNS1_IT_T0_EE, symObjAddr: 0x1048, symBinAddr: 0x100002EC0, symSize: 0x44 }
  - { offsetInCU: 0xA30E, offset: 0xA30E, size: 0x8, addend: 0x0, symName: __ZNSt6chrono13duration_castINS_8durationIxSt5ratioILl1ELl1000000000EEEExS2_ILl3600ELl1EEEENSt9enable_ifIXsrNS_13__is_durationIT_EE5valueES8_E4typeERKNS1_IT0_T1_EE, symObjAddr: 0xFE8, symBinAddr: 0x100002E60, symSize: 0x1C }
  - { offsetInCU: 0xA316, offset: 0xA316, size: 0x8, addend: 0x0, symName: __ZNSt6chrono20__duration_cast_implINS_8durationIxSt5ratioILl1ELl1000000000EEEES2_ILl60000000000ELl1EExLb0ELb1EE6__castIxS2_ILl60ELl1EEEES4_RKNS1_IT_T0_EE, symObjAddr: 0x1004, symBinAddr: 0x100002E7C, symSize: 0x44 }
  - { offsetInCU: 0xA2E2, offset: 0xA2E2, size: 0x8, addend: 0x0, symName: __ZNSt6chrono8durationIxSt5ratioILl1ELl1EEEC1IxvEERKT_, symObjAddr: 0xFC0, symBinAddr: 0x100002E38, symSize: 0x28 }
  - { offsetInCU: 0xA2EA, offset: 0xA2EA, size: 0x8, addend: 0x0, symName: __ZNSt6chrono13duration_castINS_8durationIxSt5ratioILl1ELl1000000000EEEExS2_ILl3600ELl1EEEENSt9enable_ifIXsrNS_13__is_durationIT_EE5valueES8_E4typeERKNS1_IT0_T1_EE, symObjAddr: 0xFE8, symBinAddr: 0x100002E60, symSize: 0x1C }
  - { offsetInCU: 0xA350, offset: 0xA350, size: 0x8, addend: 0x0, symName: __ZNSt6chrono8durationIxSt5ratioILl1ELl1000000000EEEpLERKS3_, symObjAddr: 0xF84, symBinAddr: 0x100002DFC, symSize: 0x3C }
  - { offsetInCU: 0xA358, offset: 0xA358, size: 0x8, addend: 0x0, symName: __ZNSt6chrono8durationIxSt5ratioILl1ELl1EEEC1IxvEERKT_, symObjAddr: 0xFC0, symBinAddr: 0x100002E38, symSize: 0x28 }
  - { offsetInCU: 0xA4A9, offset: 0xA4A9, size: 0x8, addend: 0x0, symName: __ZNSt6chrono13duration_castINS_8durationIxSt5ratioILl1ELl1000000000EEEExS2_ILl60ELl1EEEENSt9enable_ifIXsrNS_13__is_durationIT_EE5valueES8_E4typeERKNS1_IT0_T1_EE, symObjAddr: 0xF68, symBinAddr: 0x100002DE0, symSize: 0x1C }
  - { offsetInCU: 0xA4B1, offset: 0xA4B1, size: 0x8, addend: 0x0, symName: __ZNSt6chrono8durationIxSt5ratioILl1ELl1000000000EEEpLERKS3_, symObjAddr: 0xF84, symBinAddr: 0x100002DFC, symSize: 0x3C }
  - { offsetInCU: 0xA4A7, offset: 0xA4A7, size: 0x8, addend: 0x0, symName: __ZNSt6chrono8durationIxSt5ratioILl1ELl1000000000EEEC1IxS1_ILl3600ELl1EEvEERKNS0_IT_T0_EE, symObjAddr: 0xF2C, symBinAddr: 0x100002DA4, symSize: 0x3C }
  - { offsetInCU: 0xA4AF, offset: 0xA4AF, size: 0x8, addend: 0x0, symName: __ZNSt6chrono13duration_castINS_8durationIxSt5ratioILl1ELl1000000000EEEExS2_ILl60ELl1EEEENSt9enable_ifIXsrNS_13__is_durationIT_EE5valueES8_E4typeERKNS1_IT0_T1_EE, symObjAddr: 0xF68, symBinAddr: 0x100002DE0, symSize: 0x1C }
  - { offsetInCU: 0xA4A2, offset: 0xA4A2, size: 0x8, addend: 0x0, symName: __ZNKSt19ostreambuf_iteratorIcSt11char_traitsIcEE6failedEv, symObjAddr: 0xF14, symBinAddr: 0x100002D8C, symSize: 0x18 }
  - { offsetInCU: 0xA4AA, offset: 0xA4AA, size: 0x8, addend: 0x0, symName: __ZNSt6chrono8durationIxSt5ratioILl1ELl1000000000EEEC1IxS1_ILl3600ELl1EEvEERKNS0_IT_T0_EE, symObjAddr: 0xF2C, symBinAddr: 0x100002DA4, symSize: 0x3C }
  - { offsetInCU: 0xA548, offset: 0xA548, size: 0x8, addend: 0x0, symName: __ZNSt19ostreambuf_iteratorIcSt11char_traitsIcEEC1EPSt15basic_streambufIcS1_E, symObjAddr: 0xED4, symBinAddr: 0x100002D4C, symSize: 0x40 }
  - { offsetInCU: 0xA550, offset: 0xA550, size: 0x8, addend: 0x0, symName: __ZNKSt19ostreambuf_iteratorIcSt11char_traitsIcEE6failedEv, symObjAddr: 0xF14, symBinAddr: 0x100002D8C, symSize: 0x18 }
  - { offsetInCU: 0xA535, offset: 0xA535, size: 0x8, addend: 0x0, symName: __ZNSt6chrono20__duration_cast_implINS_8durationIxSt5ratioILl1ELl1EEEES2_ILl1ELl1000000000EExLb1ELb0EE6__castIxS5_EES4_RKNS1_IT_T0_EE, symObjAddr: 0xE84, symBinAddr: 0x100002CFC, symSize: 0x50 }
  - { offsetInCU: 0xA53D, offset: 0xA53D, size: 0x8, addend: 0x0, symName: __ZNSt19ostreambuf_iteratorIcSt11char_traitsIcEEC1EPSt15basic_streambufIcS1_E, symObjAddr: 0xED4, symBinAddr: 0x100002D4C, symSize: 0x40 }
  - { offsetInCU: 0xA590, offset: 0xA590, size: 0x8, addend: 0x0, symName: __ZNSt7__cxx1112basic_stringIcSt11char_traitsIcESaIcEE12_M_constructIPKcEEvT_S8_St20forward_iterator_tag, symObjAddr: 0xD9C, symBinAddr: 0x100002C14, symSize: 0xE8 }
  - { offsetInCU: 0xA598, offset: 0xA598, size: 0x8, addend: 0x0, symName: __ZNSt6chrono20__duration_cast_implINS_8durationIxSt5ratioILl1ELl1EEEES2_ILl1ELl1000000000EExLb1ELb0EE6__castIxS5_EES4_RKNS1_IT_T0_EE, symObjAddr: 0xE84, symBinAddr: 0x100002CFC, symSize: 0x50 }
  - { offsetInCU: 0xA747, offset: 0xA747, size: 0x8, addend: 0x0, symName: __ZZNSt7__cxx1112basic_stringIcSt11char_traitsIcESaIcEE12_M_constructIPKcEEvT_S8_St20forward_iterator_tagEN6_GuardC1EPS4_, symObjAddr: 0xD44, symBinAddr: 0x100002BBC, symSize: 0x24 }
  - { offsetInCU: 0xA74F, offset: 0xA74F, size: 0x8, addend: 0x0, symName: __ZZNSt7__cxx1112basic_stringIcSt11char_traitsIcESaIcEE12_M_constructIPKcEEvT_S8_St20forward_iterator_tagEN6_GuardD1Ev, symObjAddr: 0xD68, symBinAddr: 0x100002BE0, symSize: 0x34 }
  - { offsetInCU: 0xA77F, offset: 0xA77F, size: 0x8, addend: 0x0, symName: __ZZNSt7__cxx1112basic_stringIcSt11char_traitsIcESaIcEE12_M_constructIPKcEEvT_S8_St20forward_iterator_tagEN6_GuardD1Ev, symObjAddr: 0xD68, symBinAddr: 0x100002BE0, symSize: 0x34 }
  - { offsetInCU: 0xA787, offset: 0xA787, size: 0x8, addend: 0x0, symName: __ZNSt7__cxx1112basic_stringIcSt11char_traitsIcESaIcEE12_M_constructIPKcEEvT_S8_St20forward_iterator_tag, symObjAddr: 0xD9C, symBinAddr: 0x100002C14, symSize: 0xE8 }
  - { offsetInCU: 0xA849, offset: 0xA849, size: 0x8, addend: 0x0, symName: __ZNSt15__new_allocatorIcED2Ev, symObjAddr: 0xD30, symBinAddr: 0x100002BA8, symSize: 0x14 }
  - { offsetInCU: 0xA851, offset: 0xA851, size: 0x8, addend: 0x0, symName: __ZZNSt7__cxx1112basic_stringIcSt11char_traitsIcESaIcEE12_M_constructIPKcEEvT_S8_St20forward_iterator_tagEN6_GuardC1EPS4_, symObjAddr: 0xD44, symBinAddr: 0x100002BBC, symSize: 0x24 }
  - { offsetInCU: 0xA872, offset: 0xA872, size: 0x8, addend: 0x0, symName: __ZN9__gnu_cxx11char_traitsIcE2eqERKcS3_, symObjAddr: 0xD00, symBinAddr: 0x100002B78, symSize: 0x30 }
  - { offsetInCU: 0xA87A, offset: 0xA87A, size: 0x8, addend: 0x0, symName: __ZNSt15__new_allocatorIcED2Ev, symObjAddr: 0xD30, symBinAddr: 0x100002BA8, symSize: 0x14 }
  - { offsetInCU: 0xA8B6, offset: 0xA8B6, size: 0x8, addend: 0x0, symName: __ZNSt6chrono10time_pointINS_3_V212system_clockENS_8durationIxSt5ratioILl1ELl1000000000EEEEEpLERKS6_, symObjAddr: 0xCD8, symBinAddr: 0x100002B50, symSize: 0x28 }
  - { offsetInCU: 0xA8BE, offset: 0xA8BE, size: 0x8, addend: 0x0, symName: __ZN9__gnu_cxx11char_traitsIcE2eqERKcS3_, symObjAddr: 0xD00, symBinAddr: 0x100002B78, symSize: 0x30 }
  - { offsetInCU: 0xA994, offset: 0xA994, size: 0x8, addend: 0x0, symName: __ZNSt6chrono8durationIxSt5ratioILl1ELl1000000000EEEC1IxS1_ILl60ELl1EEvEERKNS0_IT_T0_EE, symObjAddr: 0xC9C, symBinAddr: 0x100002B14, symSize: 0x3C }
  - { offsetInCU: 0xA99C, offset: 0xA99C, size: 0x8, addend: 0x0, symName: __ZNSt6chrono10time_pointINS_3_V212system_clockENS_8durationIxSt5ratioILl1ELl1000000000EEEEEpLERKS6_, symObjAddr: 0xCD8, symBinAddr: 0x100002B50, symSize: 0x28 }
  - { offsetInCU: 0xAA09, offset: 0xAA09, size: 0x8, addend: 0x0, symName: __ZNSt6chrono8durationIxSt5ratioILl60ELl1EEEC1IivEERKT_, symObjAddr: 0xC70, symBinAddr: 0x100002AE8, symSize: 0x2C }
  - { offsetInCU: 0xAA11, offset: 0xAA11, size: 0x8, addend: 0x0, symName: __ZNSt6chrono8durationIxSt5ratioILl1ELl1000000000EEEC1IxS1_ILl60ELl1EEvEERKNS0_IT_T0_EE, symObjAddr: 0xC9C, symBinAddr: 0x100002B14, symSize: 0x3C }
  - { offsetInCU: 0xAAD6, offset: 0xAAD6, size: 0x8, addend: 0x0, symName: __ZNSt6chronoeqIxSt5ratioILl1ELl1000000000EExS2_EEbRKNS_8durationIT_T0_EERKNS3_IT1_T2_EE, symObjAddr: 0xC18, symBinAddr: 0x100002A90, symSize: 0x58 }
  - { offsetInCU: 0xAADE, offset: 0xAADE, size: 0x8, addend: 0x0, symName: __ZNSt6chrono8durationIxSt5ratioILl60ELl1EEEC1IivEERKT_, symObjAddr: 0xC70, symBinAddr: 0x100002AE8, symSize: 0x2C }
  - { offsetInCU: 0xAB45, offset: 0xAB45, size: 0x8, addend: 0x0, symName: __ZNSt7__cxx1112basic_stringIcSt11char_traitsIcESaIcEEC1IS3_EEPKcRKS3_, symObjAddr: 0xB7C, symBinAddr: 0x1000029F4, symSize: 0x9C }
  - { offsetInCU: 0xAB4D, offset: 0xAB4D, size: 0x8, addend: 0x0, symName: __ZNSt6chronoeqIxSt5ratioILl1ELl1000000000EExS2_EEbRKNS_8durationIT_T0_EERKNS3_IT1_T2_EE, symObjAddr: 0xC18, symBinAddr: 0x100002A90, symSize: 0x58 }
  - { offsetInCU: 0xAC0C, offset: 0xAC0C, size: 0x8, addend: 0x0, symName: __ZNSt6chrono10time_pointINS_3_V212system_clockENS_8durationIxSt5ratioILl1ELl1000000000EEEEEC1ERKS6_, symObjAddr: 0xB54, symBinAddr: 0x1000029CC, symSize: 0x28 }
  - { offsetInCU: 0xAC14, offset: 0xAC14, size: 0x8, addend: 0x0, symName: __ZNSt7__cxx1112basic_stringIcSt11char_traitsIcESaIcEEC1IS3_EEPKcRKS3_, symObjAddr: 0xB7C, symBinAddr: 0x1000029F4, symSize: 0x9C }
  - { offsetInCU: 0xACC1, offset: 0xACC1, size: 0x8, addend: 0x0, symName: __ZNSt6chronomiIxSt5ratioILl1ELl1000000000EExS1_ILl3600ELl1EEEENSt11common_typeIJNS_8durationIT_T0_EENS5_IT1_T2_EEEE4typeERKS8_RKSB_, symObjAddr: 0xAF0, symBinAddr: 0x100002968, symSize: 0x64 }
  - { offsetInCU: 0xACC9, offset: 0xACC9, size: 0x8, addend: 0x0, symName: __ZNSt6chrono10time_pointINS_3_V212system_clockENS_8durationIxSt5ratioILl1ELl1000000000EEEEEC1ERKS6_, symObjAddr: 0xB54, symBinAddr: 0x1000029CC, symSize: 0x28 }
  - { offsetInCU: 0xAD2E, offset: 0xAD2E, size: 0x8, addend: 0x0, symName: __ZStlsIcSt11char_traitsIcEERSt13basic_ostreamIT_T0_ES6_St9_Put_timeIS3_E, symObjAddr: 0x8A8, symBinAddr: 0x100002720, symSize: 0x248 }
  - { offsetInCU: 0xAD36, offset: 0xAD36, size: 0x8, addend: 0x0, symName: __ZNSt6chronomiIxSt5ratioILl1ELl1000000000EExS1_ILl3600ELl1EEEENSt11common_typeIJNS_8durationIT_T0_EENS5_IT1_T2_EEEE4typeERKS8_RKSB_, symObjAddr: 0xAF0, symBinAddr: 0x100002968, symSize: 0x64 }
  - { offsetInCU: 0xAE44, offset: 0xAE44, size: 0x8, addend: 0x0, symName: __ZSt8put_timeIcESt9_Put_timeIT_EPK2tmPKS1_, symObjAddr: 0x884, symBinAddr: 0x1000026FC, symSize: 0x24 }
  - { offsetInCU: 0xAE4C, offset: 0xAE4C, size: 0x8, addend: 0x0, symName: __ZStlsIcSt11char_traitsIcEERSt13basic_ostreamIT_T0_ES6_St9_Put_timeIS3_E, symObjAddr: 0x8A8, symBinAddr: 0x100002720, symSize: 0x248 }
  - { offsetInCU: 0xAE65, offset: 0xAE65, size: 0x8, addend: 0x0, symName: __ZNKSt6chrono8durationIxSt5ratioILl1ELl1EEE5countEv, symObjAddr: 0x86C, symBinAddr: 0x1000026E4, symSize: 0x18 }
  - { offsetInCU: 0xAE6D, offset: 0xAE6D, size: 0x8, addend: 0x0, symName: __ZSt8put_timeIcESt9_Put_timeIT_EPK2tmPKS1_, symObjAddr: 0x884, symBinAddr: 0x1000026FC, symSize: 0x24 }
  - { offsetInCU: 0xAFA8, offset: 0xAFA8, size: 0x8, addend: 0x0, symName: __ZNSt6chrono13duration_castINS_8durationIxSt5ratioILl1ELl1EEEExS2_ILl1ELl1000000000EEEENSt9enable_ifIXsrNS_13__is_durationIT_EE5valueES8_E4typeERKNS1_IT0_T1_EE, symObjAddr: 0x850, symBinAddr: 0x1000026C8, symSize: 0x1C }
  - { offsetInCU: 0xAFB0, offset: 0xAFB0, size: 0x8, addend: 0x0, symName: __ZNKSt6chrono8durationIxSt5ratioILl1ELl1EEE5countEv, symObjAddr: 0x86C, symBinAddr: 0x1000026E4, symSize: 0x18 }
  - { offsetInCU: 0xAF8E, offset: 0xAF8E, size: 0x8, addend: 0x0, symName: __ZNSt7__cxx1112basic_stringIcSt11char_traitsIcESaIcEE12_Alloc_hiderD1Ev, symObjAddr: 0x824, symBinAddr: 0x10000269C, symSize: 0x2C }
  - { offsetInCU: 0xAF96, offset: 0xAF96, size: 0x8, addend: 0x0, symName: __ZNSt6chrono13duration_castINS_8durationIxSt5ratioILl1ELl1EEEExS2_ILl1ELl1000000000EEEENSt9enable_ifIXsrNS_13__is_durationIT_EE5valueES8_E4typeERKNS1_IT0_T1_EE, symObjAddr: 0x850, symBinAddr: 0x1000026C8, symSize: 0x1C }
  - { offsetInCU: 0xAFDA, offset: 0xAFDA, size: 0x8, addend: 0x0, symName: __ZN9__gnu_cxx11char_traitsIcE6lengthEPKc, symObjAddr: 0x7C8, symBinAddr: 0x100002640, symSize: 0x5C }
  - { offsetInCU: 0xAFE2, offset: 0xAFE2, size: 0x8, addend: 0x0, symName: __ZNSt7__cxx1112basic_stringIcSt11char_traitsIcESaIcEE12_Alloc_hiderD1Ev, symObjAddr: 0x824, symBinAddr: 0x10000269C, symSize: 0x2C }
  - { offsetInCU: 0xB028, offset: 0xB028, size: 0x8, addend: 0x0, symName: _main, symObjAddr: 0x3DC, symBinAddr: 0x100002254, symSize: 0x3EC }
  - { offsetInCU: 0xB030, offset: 0xB030, size: 0x8, addend: 0x0, symName: __ZN9__gnu_cxx11char_traitsIcE6lengthEPKc, symObjAddr: 0x7C8, symBinAddr: 0x100002640, symSize: 0x5C }
  - { offsetInCU: 0xB313, offset: 0xB313, size: 0x8, addend: 0x0, symName: __ZNSt6chronoeqINS_3_V212system_clockENS_8durationIxSt5ratioILl1ELl1000000000EEEES6_EEbRKNS_10time_pointIT_T0_EERKNS7_IS8_T1_EE, symObjAddr: 0x39C, symBinAddr: 0x100002214, symSize: 0x40 }
  - { offsetInCU: 0xB31B, offset: 0xB31B, size: 0x8, addend: 0x0, symName: _main, symObjAddr: 0x3DC, symBinAddr: 0x100002254, symSize: 0x3EC }
  - { offsetInCU: 0xB397, offset: 0xB397, size: 0x8, addend: 0x0, symName: __ZNSt6chronoltINS_3_V212system_clockENS_8durationIxSt5ratioILl1ELl1000000000EEEES6_EEbRKNS_10time_pointIT_T0_EERKNS7_IS8_T1_EE, symObjAddr: 0x35C, symBinAddr: 0x1000021D4, symSize: 0x40 }
  - { offsetInCU: 0xB39F, offset: 0xB39F, size: 0x8, addend: 0x0, symName: __ZNSt6chronoeqINS_3_V212system_clockENS_8durationIxSt5ratioILl1ELl1000000000EEEES6_EEbRKNS_10time_pointIT_T0_EERKNS7_IS8_T1_EE, symObjAddr: 0x39C, symBinAddr: 0x100002214, symSize: 0x40 }
  - { offsetInCU: 0xB411, offset: 0xB411, size: 0x8, addend: 0x0, symName: __ZNSt6chronoleINS_3_V212system_clockENS_8durationIxSt5ratioILl1ELl1000000000EEEES6_EEbRKNS_10time_pointIT_T0_EERKNS7_IS8_T1_EE, symObjAddr: 0x32C, symBinAddr: 0x1000021A4, symSize: 0x30 }
  - { offsetInCU: 0xB419, offset: 0xB419, size: 0x8, addend: 0x0, symName: __ZNSt6chronoltINS_3_V212system_clockENS_8durationIxSt5ratioILl1ELl1000000000EEEES6_EEbRKNS_10time_pointIT_T0_EERKNS7_IS8_T1_EE, symObjAddr: 0x35C, symBinAddr: 0x1000021D4, symSize: 0x40 }
  - { offsetInCU: 0xB357, offset: 0xB357, size: 0x8, addend: 0x0, symName: __ZNKSt6chrono10time_pointINS_3_V212system_clockENS_8durationIxSt5ratioILl1ELl1000000000EEEEE16time_since_epochEv, symObjAddr: 0x314, symBinAddr: 0x10000218C, symSize: 0x18 }
  - { offsetInCU: 0xB35F, offset: 0xB35F, size: 0x8, addend: 0x0, symName: __ZNSt6chronoleINS_3_V212system_clockENS_8durationIxSt5ratioILl1ELl1000000000EEEES6_EEbRKNS_10time_pointIT_T0_EERKNS7_IS8_T1_EE, symObjAddr: 0x32C, symBinAddr: 0x1000021A4, symSize: 0x30 }
  - { offsetInCU: 0xB4CF, offset: 0xB4CF, size: 0x8, addend: 0x0, symName: __ZNSt6chronomiINS_3_V212system_clockENS_8durationIxSt5ratioILl1ELl1000000000EEEExS4_ILl3600ELl1EEEENS_10time_pointIT_NSt11common_typeIJT0_NS3_IT1_T2_EEEE4typeEEERKNS8_IS9_SB_EERKSE_, symObjAddr: 0x2D0, symBinAddr: 0x100002148, symSize: 0x44 }
  - { offsetInCU: 0xB4D7, offset: 0xB4D7, size: 0x8, addend: 0x0, symName: __ZNKSt6chrono10time_pointINS_3_V212system_clockENS_8durationIxSt5ratioILl1ELl1000000000EEEEE16time_since_epochEv, symObjAddr: 0x314, symBinAddr: 0x10000218C, symSize: 0x18 }
  - { offsetInCU: 0xB48E, offset: 0xB48E, size: 0x8, addend: 0x0, symName: __ZNSt6chrono8durationIxSt5ratioILl3600ELl1EEEC1IivEERKT_, symObjAddr: 0x2A4, symBinAddr: 0x10000211C, symSize: 0x2C }
  - { offsetInCU: 0xB496, offset: 0xB496, size: 0x8, addend: 0x0, symName: __ZNSt6chronomiINS_3_V212system_clockENS_8durationIxSt5ratioILl1ELl1000000000EEEExS4_ILl3600ELl1EEEENS_10time_pointIT_NSt11common_typeIJT0_NS3_IT1_T2_EEEE4typeEEERKNS8_IS9_SB_EERKSE_, symObjAddr: 0x2D0, symBinAddr: 0x100002148, symSize: 0x44 }
  - { offsetInCU: 0xB4D0, offset: 0xB4D0, size: 0x8, addend: 0x0, symName: __Z17getCurrentDateStrB5cxx11v, symObjAddr: 0x1E8, symBinAddr: 0x100002060, symSize: 0xBC }
  - { offsetInCU: 0xB4D8, offset: 0xB4D8, size: 0x8, addend: 0x0, symName: __ZNSt6chrono8durationIxSt5ratioILl3600ELl1EEEC1IivEERKT_, symObjAddr: 0x2A4, symBinAddr: 0x10000211C, symSize: 0x2C }
  - { offsetInCU: 0xB549, offset: 0xB549, size: 0x8, addend: 0x0, symName: __Z20generateRandomNumberii, symObjAddr: 0x1A4, symBinAddr: 0x10000201C, symSize: 0x44 }
  - { offsetInCU: 0xB551, offset: 0xB551, size: 0x8, addend: 0x0, symName: __Z17getCurrentDateStrB5cxx11v, symObjAddr: 0x1E8, symBinAddr: 0x100002060, symSize: 0xBC }
  - { offsetInCU: 0xB566, offset: 0xB566, size: 0x8, addend: 0x0, symName: __ZNSt6chrono3_V212system_clock9to_time_tERKNS_10time_pointIS1_NS_8durationIxSt5ratioILl1ELl1000000000EEEEEE, symObjAddr: 0x170, symBinAddr: 0x100001FE8, symSize: 0x34 }
  - { offsetInCU: 0xB56E, offset: 0xB56E, size: 0x8, addend: 0x0, symName: __Z20generateRandomNumberii, symObjAddr: 0x1A4, symBinAddr: 0x10000201C, symSize: 0x44 }
  - { offsetInCU: 0xB598, offset: 0xB598, size: 0x8, addend: 0x0, symName: __ZNKSt6chrono8durationIxSt5ratioILl1ELl1000000000EEE5countEv, symObjAddr: 0x158, symBinAddr: 0x100001FD0, symSize: 0x18 }
  - { offsetInCU: 0xB5A0, offset: 0xB5A0, size: 0x8, addend: 0x0, symName: __ZNSt6chrono3_V212system_clock9to_time_tERKNS_10time_pointIS1_NS_8durationIxSt5ratioILl1ELl1000000000EEEEEE, symObjAddr: 0x170, symBinAddr: 0x100001FE8, symSize: 0x34 }
  - { offsetInCU: 0xB63D, offset: 0xB63D, size: 0x8, addend: 0x0, symName: __ZNSt6chrono8durationIxSt5ratioILl1ELl1000000000EEEC1IxvEERKT_, symObjAddr: 0x130, symBinAddr: 0x100001FA8, symSize: 0x28 }
  - { offsetInCU: 0xB645, offset: 0xB645, size: 0x8, addend: 0x0, symName: __ZNKSt6chrono8durationIxSt5ratioILl1ELl1000000000EEE5countEv, symObjAddr: 0x158, symBinAddr: 0x100001FD0, symSize: 0x18 }
  - { offsetInCU: 0xB702, offset: 0xB702, size: 0x8, addend: 0x0, symName: __ZNSt6chronoltIxSt5ratioILl1ELl1000000000EExS2_EEbRKNS_8durationIT_T0_EERKNS3_IT1_T2_EE, symObjAddr: 0xD8, symBinAddr: 0x100001F50, symSize: 0x58 }
  - { offsetInCU: 0xB70A, offset: 0xB70A, size: 0x8, addend: 0x0, symName: __ZNSt6chrono8durationIxSt5ratioILl1ELl1000000000EEEC1IxvEERKT_, symObjAddr: 0x130, symBinAddr: 0x100001FA8, symSize: 0x28 }
  - { offsetInCU: 0xB6F0, offset: 0xB6F0, size: 0x8, addend: 0x0, symName: __ZNKSt8ios_base6getlocEv, symObjAddr: 0xA0, symBinAddr: 0x100001F18, symSize: 0x38 }
  - { offsetInCU: 0xB6F8, offset: 0xB6F8, size: 0x8, addend: 0x0, symName: __ZNSt6chronoltIxSt5ratioILl1ELl1000000000EExS2_EEbRKNS_8durationIT_T0_EERKNS3_IT1_T2_EE, symObjAddr: 0xD8, symBinAddr: 0x100001F50, symSize: 0x58 }
  - { offsetInCU: 0xB748, offset: 0xB748, size: 0x8, addend: 0x0, symName: __ZStoRRSt12_Ios_IostateS_, symObjAddr: 0x68, symBinAddr: 0x100001EE0, symSize: 0x38 }
  - { offsetInCU: 0xB750, offset: 0xB750, size: 0x8, addend: 0x0, symName: __ZNKSt8ios_base6getlocEv, symObjAddr: 0xA0, symBinAddr: 0x100001F18, symSize: 0x38 }
  - { offsetInCU: 0xB7AB, offset: 0xB7AB, size: 0x8, addend: 0x0, symName: __ZStorSt12_Ios_IostateS_, symObjAddr: 0x48, symBinAddr: 0x100001EC0, symSize: 0x20 }
  - { offsetInCU: 0xB7B3, offset: 0xB7B3, size: 0x8, addend: 0x0, symName: __ZStoRRSt12_Ios_IostateS_, symObjAddr: 0x68, symBinAddr: 0x100001EE0, symSize: 0x38 }
  - { offsetInCU: 0xB7D5, offset: 0xB7D5, size: 0x8, addend: 0x0, symName: __ZNSt11char_traitsIcE6lengthEPKc, symObjAddr: 0x8, symBinAddr: 0x100001E80, symSize: 0x40 }
  - { offsetInCU: 0xB7DD, offset: 0xB7DD, size: 0x8, addend: 0x0, symName: __ZStorSt12_Ios_IostateS_, symObjAddr: 0x48, symBinAddr: 0x100001EC0, symSize: 0x20 }
  - { offsetInCU: 0xB844, offset: 0xB844, size: 0x8, addend: 0x0, symName: __ZSt23__is_constant_evaluatedv, symObjAddr: 0x0, symBinAddr: 0x100001E78, symSize: 0x8 }
  - { offsetInCU: 0xB84C, offset: 0xB84C, size: 0x8, addend: 0x0, symName: __ZNSt11char_traitsIcE6lengthEPKc, symObjAddr: 0x8, symBinAddr: 0x100001E80, symSize: 0x40 }
...
